target datalayout = "e-m:e-p270:32:32-p271:32:32-p272:64:64-i64:64-i128:128-f80:128-n8:16:32:64-S128"
target triple = "x86_64-pc-linux-gnu"

%struct.HuffTable = type { [32 x %struct.HuffEntry], i8 }
%struct.HuffEntry = type { i8, i8 }
%struct.GetBitContext = type { ptr, ptr, i32, i32, i32 }

@.str.20 = private unnamed_addr constant [23 x i8] c"huffman tree overflow\0A\00", align 1

; Function Attrs: alwaysinline nounwind willreturn memory(none) uwtable
define internal i32 @av_bswap32(i32 noundef %0) #6 {
  %2 = alloca i32, align 4
  store i32 %0, ptr %2, align 4, !tbaa !31
  %3 = load i32, ptr %2, align 4, !tbaa !31
  %4 = shl i32 %3, 8
  %5 = and i32 %4, 65280
  %6 = load i32, ptr %2, align 4, !tbaa !31
  %7 = lshr i32 %6, 8
  %8 = and i32 %7, 255
  %9 = or i32 %5, %8
  %10 = shl i32 %9, 16
  %11 = load i32, ptr %2, align 4, !tbaa !31
  %12 = lshr i32 %11, 16
  %13 = shl i32 %12, 8
  %14 = and i32 %13, 65280
  %15 = load i32, ptr %2, align 4, !tbaa !31
  %16 = lshr i32 %15, 16
  %17 = lshr i32 %16, 8
  %18 = and i32 %17, 255
  %19 = or i32 %14, %18
  %20 = or i32 %10, %19
  ret i32 %20
}

; Function Attrs: inlinehint nounwind uwtable
define internal i32 @get_bits(ptr noundef %0, i32 noundef %1) #5 {
  %3 = alloca ptr, align 8
  %4 = alloca i32, align 4
  %5 = alloca i32, align 4
  %6 = alloca i32, align 4
  %7 = alloca i32, align 4
  %8 = alloca i32, align 4
  store ptr %0, ptr %3, align 8, !tbaa !149
  store i32 %1, ptr %4, align 4, !tbaa !31
  call void @llvm.lifetime.start.p0(i64 4, ptr %5) #9
  call void @llvm.lifetime.start.p0(i64 4, ptr %6) #9
  %9 = load ptr, ptr %3, align 8, !tbaa !149
  %10 = getelementptr inbounds nuw %struct.GetBitContext, ptr %9, i32 0, i32 2
  %11 = load i32, ptr %10, align 8, !tbaa !151
  store i32 %11, ptr %6, align 4, !tbaa !31
  call void @llvm.lifetime.start.p0(i64 4, ptr %7) #9
  call void @llvm.lifetime.start.p0(i64 4, ptr %8) #9
  %12 = load ptr, ptr %3, align 8, !tbaa !149
  %13 = getelementptr inbounds nuw %struct.GetBitContext, ptr %12, i32 0, i32 4
  %14 = load i32, ptr %13, align 8, !tbaa !153
  store i32 %14, ptr %8, align 4, !tbaa !31
  %15 = load ptr, ptr %3, align 8, !tbaa !149
  %16 = getelementptr inbounds nuw %struct.GetBitContext, ptr %15, i32 0, i32 0
  %17 = load ptr, ptr %16, align 8, !tbaa !154
  %18 = load i32, ptr %6, align 4, !tbaa !31
  %19 = lshr i32 %18, 3
  %20 = zext i32 %19 to i64
  %21 = getelementptr inbounds nuw i8, ptr %17, i64 %20
  %22 = load i32, ptr %21, align 1, !tbaa !70
  %23 = call i32 @av_bswap32(i32 noundef %22) #11
  %24 = load i32, ptr %6, align 4, !tbaa !31
  %25 = and i32 %24, 7
  %26 = shl i32 %23, %25
  %27 = lshr i32 %26, 0
  store i32 %27, ptr %7, align 4, !tbaa !31
  %28 = load i32, ptr %7, align 4, !tbaa !31
  %29 = load i32, ptr %4, align 4, !tbaa !31
  %30 = sub nsw i32 32, %29
  %31 = lshr i32 %28, %30
  store i32 %31, ptr %5, align 4, !tbaa !31
  %32 = load i32, ptr %8, align 4, !tbaa !31
  %33 = load i32, ptr %6, align 4, !tbaa !31
  %34 = load i32, ptr %4, align 4, !tbaa !31
  %35 = add i32 %33, %34
  %36 = icmp ugt i32 %32, %35
  br i1 %36, label %37, label %41

37:                                               ; preds = %2
  %38 = load i32, ptr %6, align 4, !tbaa !31
  %39 = load i32, ptr %4, align 4, !tbaa !31
  %40 = add i32 %38, %39
  br label %43

41:                                               ; preds = %2
  %42 = load i32, ptr %8, align 4, !tbaa !31
  br label %43

43:                                               ; preds = %41, %37
  %44 = phi i32 [ %40, %37 ], [ %42, %41 ]
  store i32 %44, ptr %6, align 4, !tbaa !31
  %45 = load i32, ptr %6, align 4, !tbaa !31
  %46 = load ptr, ptr %3, align 8, !tbaa !149
  %47 = getelementptr inbounds nuw %struct.GetBitContext, ptr %46, i32 0, i32 2
  store i32 %45, ptr %47, align 8, !tbaa !151
  %48 = load i32, ptr %5, align 4, !tbaa !31
  call void @llvm.lifetime.end.p0(i64 4, ptr %8) #9
  call void @llvm.lifetime.end.p0(i64 4, ptr %7) #9
  call void @llvm.lifetime.end.p0(i64 4, ptr %6) #9
  call void @llvm.lifetime.end.p0(i64 4, ptr %5) #9
  ret i32 %48
}

; Function Attrs: inlinehint nounwind uwtable
define internal i32 @get_bits1(ptr noundef %0) #5 {
  %2 = alloca ptr, align 8
  %3 = alloca i32, align 4
  %4 = alloca i8, align 1
  store ptr %0, ptr %2, align 8, !tbaa !149
  call void @llvm.lifetime.start.p0(i64 4, ptr %3) #9
  %5 = load ptr, ptr %2, align 8, !tbaa !149
  %6 = getelementptr inbounds nuw %struct.GetBitContext, ptr %5, i32 0, i32 2
  %7 = load i32, ptr %6, align 8, !tbaa !151
  store i32 %7, ptr %3, align 4, !tbaa !31
  call void @llvm.lifetime.start.p0(i64 1, ptr %4) #9
  %8 = load ptr, ptr %2, align 8, !tbaa !149
  %9 = getelementptr inbounds nuw %struct.GetBitContext, ptr %8, i32 0, i32 0
  %10 = load ptr, ptr %9, align 8, !tbaa !154
  %11 = load i32, ptr %3, align 4, !tbaa !31
  %12 = lshr i32 %11, 3
  %13 = zext i32 %12 to i64
  %14 = getelementptr inbounds nuw i8, ptr %10, i64 %13
  %15 = load i8, ptr %14, align 1, !tbaa !70
  store i8 %15, ptr %4, align 1, !tbaa !70
  %16 = load i32, ptr %3, align 4, !tbaa !31
  %17 = and i32 %16, 7
  %18 = load i8, ptr %4, align 1, !tbaa !70
  %19 = zext i8 %18 to i32
  %20 = shl i32 %19, %17
  %21 = trunc i32 %20 to i8
  store i8 %21, ptr %4, align 1, !tbaa !70
  %22 = load i8, ptr %4, align 1, !tbaa !70
  %23 = zext i8 %22 to i32
  %24 = ashr i32 %23, 7
  %25 = trunc i32 %24 to i8
  store i8 %25, ptr %4, align 1, !tbaa !70
  %26 = load ptr, ptr %2, align 8, !tbaa !149
  %27 = getelementptr inbounds nuw %struct.GetBitContext, ptr %26, i32 0, i32 2
  %28 = load i32, ptr %27, align 8, !tbaa !151
  %29 = load ptr, ptr %2, align 8, !tbaa !149
  %30 = getelementptr inbounds nuw %struct.GetBitContext, ptr %29, i32 0, i32 4
  %31 = load i32, ptr %30, align 8, !tbaa !153
  %32 = icmp slt i32 %28, %31
  br i1 %32, label %33, label %36

33:                                               ; preds = %1
  %34 = load i32, ptr %3, align 4, !tbaa !31
  %35 = add i32 %34, 1
  store i32 %35, ptr %3, align 4, !tbaa !31
  br label %36

36:                                               ; preds = %33, %1
  %37 = load i32, ptr %3, align 4, !tbaa !31
  %38 = load ptr, ptr %2, align 8, !tbaa !149
  %39 = getelementptr inbounds nuw %struct.GetBitContext, ptr %38, i32 0, i32 2
  store i32 %37, ptr %39, align 8, !tbaa !151
  %40 = load i8, ptr %4, align 1, !tbaa !70
  %41 = zext i8 %40 to i32
  call void @llvm.lifetime.end.p0(i64 1, ptr %4) #9
  call void @llvm.lifetime.end.p0(i64 4, ptr %3) #9
  ret i32 %41
}

; Function Attrs: nounwind uwtable
define internal i32 @read_huffman_tree(ptr noundef %0, ptr noundef %1, i32 noundef %2, ptr noundef %3) #0 {
  %5 = alloca i32, align 4
  %6 = alloca ptr, align 8
  %7 = alloca ptr, align 8
  %8 = alloca i32, align 4
  %9 = alloca ptr, align 8
  %10 = alloca i32, align 4
  %11 = alloca i32, align 4
  %12 = alloca %struct.HuffEntry, align 1
  store ptr %0, ptr %6, align 8, !tbaa !142
  store ptr %1, ptr %7, align 8, !tbaa !149
  store i32 %2, ptr %8, align 4, !tbaa !31
  store ptr %3, ptr %9, align 8, !tbaa !4
  %13 = load ptr, ptr %7, align 8, !tbaa !149
  %14 = call i32 @get_bits1(ptr noundef %13)
  %15 = icmp ne i32 %14, 0
  br i1 %15, label %16, label %47

16:                                               ; preds = %4
  call void @llvm.lifetime.start.p0(i64 4, ptr %10) #9
  %17 = load ptr, ptr %6, align 8, !tbaa !142
  %18 = getelementptr inbounds nuw %struct.HuffTable, ptr %17, i32 0, i32 1
  %19 = load i8, ptr %18, align 1, !tbaa !144
  %20 = zext i8 %19 to i32
  %21 = icmp sge i32 %20, 32
  br i1 %21, label %22, label %24

22:                                               ; preds = %16
  %23 = load ptr, ptr %9, align 8, !tbaa !4
  call void (ptr, i32, ptr, ...) @av_log(ptr noundef %23, i32 noundef 16, ptr noundef @.str.20)
  store i32 -1, ptr %5, align 4
  store i32 1, ptr %11, align 4
  br label %44

24:                                               ; preds = %16
  %25 = load ptr, ptr %7, align 8, !tbaa !149
  %26 = call i32 @get_bits(ptr noundef %25, i32 noundef 5)
  store i32 %26, ptr %10, align 4, !tbaa !31
  br label %27

27:                                               ; preds = %24
  br label %28

28:                                               ; preds = %27
  br label %29

29:                                               ; preds = %28
  %30 = load ptr, ptr %6, align 8, !tbaa !142
  %31 = getelementptr inbounds nuw %struct.HuffTable, ptr %30, i32 0, i32 0
  %32 = load ptr, ptr %6, align 8, !tbaa !142
  %33 = getelementptr inbounds nuw %struct.HuffTable, ptr %32, i32 0, i32 1
  %34 = load i8, ptr %33, align 1, !tbaa !144
  %35 = add i8 %34, 1
  store i8 %35, ptr %33, align 1, !tbaa !144
  %36 = zext i8 %34 to i64
  %37 = getelementptr inbounds nuw [32 x %struct.HuffEntry], ptr %31, i64 0, i64 %36
  %38 = getelementptr inbounds nuw %struct.HuffEntry, ptr %12, i32 0, i32 0
  %39 = load i32, ptr %8, align 4, !tbaa !31
  %40 = trunc i32 %39 to i8
  store i8 %40, ptr %38, align 1, !tbaa !172
  %41 = getelementptr inbounds nuw %struct.HuffEntry, ptr %12, i32 0, i32 1
  %42 = load i32, ptr %10, align 4, !tbaa !31
  %43 = trunc i32 %42 to i8
  store i8 %43, ptr %41, align 1, !tbaa !174
  call void @llvm.memcpy.p0.p0.i64(ptr align 1 %37, ptr align 1 %12, i64 2, i1 false), !tbaa.struct !175
  store i32 0, ptr %11, align 4
  br label %44

44:                                               ; preds = %29, %22
  call void @llvm.lifetime.end.p0(i64 4, ptr %10) #9
  %45 = load i32, ptr %11, align 4
  switch i32 %45, label %74 [
    i32 0, label %46
    i32 1, label %72
  ]

46:                                               ; preds = %44
  br label %71

47:                                               ; preds = %4
  %48 = load i32, ptr %8, align 4, !tbaa !31
  %49 = icmp sge i32 %48, 31
  br i1 %49, label %50, label %52

50:                                               ; preds = %47
  %51 = load ptr, ptr %9, align 8, !tbaa !4
  call void (ptr, i32, ptr, ...) @av_log(ptr noundef %51, i32 noundef 16, ptr noundef @.str.20)
  store i32 -1, ptr %5, align 4
  br label %72

52:                                               ; preds = %47
  %53 = load i32, ptr %8, align 4, !tbaa !31
  %54 = add nsw i32 %53, 1
  store i32 %54, ptr %8, align 4, !tbaa !31
  %55 = load ptr, ptr %6, align 8, !tbaa !142
  %56 = load ptr, ptr %7, align 8, !tbaa !149
  %57 = load i32, ptr %8, align 4, !tbaa !31
  %58 = load ptr, ptr %9, align 8, !tbaa !4
  %59 = call i32 @read_huffman_tree(ptr noundef %55, ptr noundef %56, i32 noundef %57, ptr noundef %58)
  %60 = icmp ne i32 %59, 0
  br i1 %60, label %61, label %62

61:                                               ; preds = %52
  store i32 -1, ptr %5, align 4
  br label %72

62:                                               ; preds = %52
  %63 = load ptr, ptr %6, align 8, !tbaa !142
  %64 = load ptr, ptr %7, align 8, !tbaa !149
  %65 = load i32, ptr %8, align 4, !tbaa !31
  %66 = load ptr, ptr %9, align 8, !tbaa !4
  %67 = call i32 @read_huffman_tree(ptr noundef %63, ptr noundef %64, i32 noundef %65, ptr noundef %66)
  %68 = icmp ne i32 %67, 0
  br i1 %68, label %69, label %70

69:                                               ; preds = %62
  store i32 -1, ptr %5, align 4
  br label %72

70:                                               ; preds = %62
  br label %71

71:                                               ; preds = %70, %46
  store i32 0, ptr %5, align 4
  br label %72

72:                                               ; preds = %71, %69, %61, %50, %44
  %73 = load i32, ptr %5, align 4
  ret i32 %73

74:                                               ; preds = %44
  unreachable
}