; Function Attrs: nounwind uwtable
define internal fastcc range(i32 -1, 1) i32 @read_huffman_tree(ptr noundef %0, ptr noundef nonnull %1, i32 noundef %2, ptr noundef %3) unnamed_addr #0 {
  %5 = getelementptr inbounds nuw i8, ptr %1, i64 16
  %6 = load i32, ptr %5, align 8, !tbaa !59
  %7 = load ptr, ptr %1, align 8, !tbaa !54
  %8 = lshr i32 %6, 3
  %9 = zext nneg i32 %8 to i64
  %10 = getelementptr inbounds nuw i8, ptr %7, i64 %9
  %11 = load i8, ptr %10, align 1, !tbaa !60
  %12 = getelementptr inbounds nuw i8, ptr %1, i64 24
  %13 = load i32, ptr %12, align 8, !tbaa !57
  %14 = icmp slt i32 %6, %13
  %15 = zext i1 %14 to i32
  %spec.select.i = add i32 %6, %15
  %16 = zext i8 %11 to i32
  %17 = and i32 %6, 7
  store i32 %spec.select.i, ptr %5, align 8, !tbaa !59
  %18 = lshr exact i32 128, %17
  %19 = and i32 %18, %16
  %.not = icmp eq i32 %19, 0
  br i1 %.not, label %40, label %20

20:                                               ; preds = %4
  %21 = getelementptr inbounds nuw i8, ptr %0, i64 64
  %22 = load i8, ptr %21, align 1, !tbaa !204
  %23 = icmp ugt i8 %22, 31
  br i1 %23, label %39, label %.thread

.thread:                                          ; preds = %20
  %24 = lshr i32 %spec.select.i, 3
  %25 = zext nneg i32 %24 to i64
  %26 = getelementptr inbounds nuw i8, ptr %7, i64 %25
  %27 = load i32, ptr %26, align 1, !tbaa !60
  %28 = tail call i32 @llvm.bswap.i32(i32 %27)
  %29 = and i32 %spec.select.i, 7
  %30 = shl i32 %28, %29
  %31 = lshr i32 %30, 27
  %32 = add i32 %spec.select.i, 5
  %33 = tail call i32 @llvm.umin.i32(i32 %13, i32 %32)
  store i32 %33, ptr %5, align 8, !tbaa !59
  %34 = add nuw nsw i8 %22, 1
  store i8 %34, ptr %21, align 1, !tbaa !204
  %35 = zext nneg i8 %22 to i64
  %36 = getelementptr inbounds nuw [32 x %struct.HuffEntry], ptr %0, i64 0, i64 %35
  %37 = trunc i32 %2 to i8
  %38 = trunc nuw nsw i32 %31 to i8
  store i8 %37, ptr %36, align 1, !tbaa !60
  %.sroa.2.0..sroa_idx = getelementptr inbounds nuw i8, ptr %36, i64 1
  store i8 %38, ptr %.sroa.2.0..sroa_idx, align 1, !tbaa !60
  br label %48

39:                                               ; preds = %20
  tail call void (ptr, i32, ptr, ...) @av_log(ptr noundef %3, i32 noundef 16, ptr noundef nonnull @.str.20) #9
  br label %49

40:                                               ; preds = %4
  %41 = icmp sgt i32 %2, 30
  br i1 %41, label %42, label %43

42:                                               ; preds = %40
  tail call void (ptr, i32, ptr, ...) @av_log(ptr noundef %3, i32 noundef 16, ptr noundef nonnull @.str.20) #9
  br label %49

43:                                               ; preds = %40
  %44 = add nsw i32 %2, 1
  %45 = tail call fastcc i32 @read_huffman_tree(ptr noundef %0, ptr noundef %1, i32 noundef %44, ptr noundef %3)
  %.not21 = icmp eq i32 %45, 0
  br i1 %.not21, label %46, label %49

46:                                               ; preds = %43
  %47 = tail call fastcc i32 @read_huffman_tree(ptr noundef %0, ptr noundef %1, i32 noundef %44, ptr noundef %3)
  %.not22 = icmp eq i32 %47, 0
  br i1 %.not22, label %48, label %49

48:                                               ; preds = %.thread, %46
  br label %49

49:                                               ; preds = %39, %46, %43, %48, %42
  %.1 = phi i32 [ -1, %39 ], [ 0, %48 ], [ -1, %42 ], [ -1, %43 ], [ -1, %46 ]
  ret i32 %.1
}